; Function Attrs: mustprogress nounwind uwtable
define hidden void @_ZN10CompiledIC18set_to_monomorphicEv(ptr nocapture noundef nonnull readonly align 8 dereferenceable(24) %0) local_unnamed_addr #0 align 2 {
  %2 = getelementptr inbounds i8, ptr %0, i64 8
  %3 = load ptr, ptr %2, align 8
  %4 = load volatile ptr, ptr %3, align 8
  %5 = getelementptr inbounds i8, ptr %4, i64 72
  %6 = load volatile ptr, ptr %5, align 8
  tail call void asm sideeffect "", "~{memory},~{dirflag},~{fpsr},~{flags}"() #14, !srcloc !16
  %.not = icmp eq ptr %6, null
  br i1 %.not, label %.thread, label %7

7:                                                ; preds = %1
  %8 = getelementptr inbounds i8, ptr %6, i64 211
  %9 = load volatile i8, ptr %8, align 1
  %10 = icmp slt i8 %9, 1
  br i1 %10, label %11, label %.thread

11:                                               ; preds = %7
  %12 = tail call noundef zeroext i1 @_ZN7nmethod12is_unloadingEv(ptr noundef nonnull align 8 dereferenceable(214) %6) #14
  br i1 %12, label %.thread, label %13

13:                                               ; preds = %11
  %14 = getelementptr inbounds i8, ptr %6, i64 36
  %15 = load i32, ptr %14, align 4
  %16 = sext i32 %15 to i64
  %17 = getelementptr inbounds i8, ptr %6, i64 %16
  %18 = getelementptr inbounds i8, ptr %6, i64 144
  %19 = load i16, ptr %18, align 8
  %20 = zext i16 %19 to i64
  %21 = getelementptr inbounds i8, ptr %17, i64 %20
  br label %23

.thread:                                          ; preds = %1, %7, %11
  %22 = tail call noundef ptr @_ZN6Method24get_c2i_unverified_entryEv(ptr noundef nonnull align 8 dereferenceable(88) %4) #14
  br label %23

23:                                               ; preds = %.thread, %13
  %24 = phi ptr [ @.str.5, %13 ], [ @.str.6, %.thread ]
  %.0 = phi ptr [ %21, %13 ], [ %22, %.thread ]
  %25 = load volatile ptr, ptr getelementptr inbounds (i8, ptr @_ZN16LogTagSetMappingILN6LogTag4typeE59ELS1_0ELS1_0ELS1_0ELS1_0ELS1_0EE7_tagsetE, i64 48), align 8
  %.not11 = icmp eq ptr %25, null
  br i1 %.not11, label %31, label %26

26:                                               ; preds = %23
  %27 = getelementptr inbounds i8, ptr %0, i64 16
  %28 = load ptr, ptr %27, align 8
  %29 = ptrtoint ptr %28 to i64
  %30 = tail call noundef ptr @_ZNK8Metadata18print_value_stringEv(ptr noundef nonnull align 8 dereferenceable(8) %4) #14
  tail call void (ptr, ...) @_ZN7LogImplILN6LogTag4typeE59ELS1_0ELS1_0ELS1_0ELS1_0ELS1_0EE5writeILN8LogLevel4typeE1EEEvPKcz(ptr noundef nonnull @.str.4, i64 noundef %29, ptr noundef nonnull %24, ptr noundef %30)
  br label %31

31:                                               ; preds = %23, %26
  %32 = getelementptr inbounds i8, ptr %0, i64 16
  %33 = load ptr, ptr %32, align 8
  tail call void @_ZN10NativeCall23set_destination_mt_safeEPh(ptr noundef nonnull align 1 dereferenceable(1) %33, ptr noundef %.0) #14
  ret void
}